target datalayout = "e-m:e-p270:32:32-p271:32:32-p272:64:64-i64:64-i128:128-f80:128-n8:16:32:64-S128"
target triple = "x86_64-pc-linux-gnu"

; Function Attrs: mustprogress uwtable
define noundef i32 @_ZNK6icu_778Collator7compareERKNS_13UnicodeStringES3_(ptr noundef nonnull align 8 dereferenceable(8) %0, ptr noundef nonnull align 8 dereferenceable(64) %1, ptr noundef nonnull align 8 dereferenceable(64) %2) unnamed_addr #3 align 2 {
  %4 = alloca ptr, align 8
  %5 = alloca ptr, align 8
  %6 = alloca ptr, align 8
  %7 = alloca i32, align 4
  store ptr %0, ptr %4, align 8, !tbaa !27
  store ptr %1, ptr %5, align 8, !tbaa !10
  store ptr %2, ptr %6, align 8, !tbaa !10
  %8 = load ptr, ptr %4, align 8
  call void @llvm.lifetime.start.p0(i64 4, ptr %7) #14
  store i32 0, ptr %7, align 4, !tbaa !25
  %9 = load ptr, ptr %5, align 8, !tbaa !10
  %10 = load ptr, ptr %6, align 8, !tbaa !10
  %11 = load ptr, ptr %8, align 8, !tbaa !19
  %12 = getelementptr inbounds ptr, ptr %11, i64 7
  %13 = load ptr, ptr %12, align 8
  %14 = call noundef i32 %13(ptr noundef nonnull align 8 dereferenceable(8) %8, ptr noundef nonnull align 8 dereferenceable(64) %9, ptr noundef nonnull align 8 dereferenceable(64) %10, ptr noundef nonnull align 4 dereferenceable(4) %7)
  call void @llvm.lifetime.end.p0(i64 4, ptr %7) #14
  ret i32 %14
}